; ModuleID = '45/2530.c'
source_filename = "45/2530.c"
target datalayout = "e-m:e-p270:32:32-p271:32:32-p272:64:64-i64:64-f80:128-n8:16:32:64-S128"
target triple = "x86_64-pc-linux-gnu"

@.str = private unnamed_addr constant [6 x i8] c"%s %s\00", align 1
@.str.1 = private unnamed_addr constant [3 x i8] c"%d\00", align 1

; Function Attrs: noinline nounwind uwtable
define dso_local i32 @main() #0 {
  %1 = alloca i32, align 4
  %2 = alloca [500 x i8], align 16
  %3 = alloca [500 x i8], align 16
  %4 = alloca i32, align 4
  %5 = alloca i32, align 4
  %6 = alloca i32, align 4
  %7 = alloca i32, align 4
  %8 = alloca i32, align 4
  %9 = alloca i32, align 4
  %10 = alloca i32, align 4
  store i32 0, i32* %1, align 4
  %11 = bitcast [500 x i8]* %2 to i8*
  call void @llvm.memset.p0i8.i64(i8* align 16 %11, i8 0, i64 500, i1 false)
  %12 = bitcast [500 x i8]* %3 to i8*
  call void @llvm.memset.p0i8.i64(i8* align 16 %12, i8 0, i64 500, i1 false)
  store i32 0, i32* %8, align 4
  store i32 0, i32* %9, align 4
  %13 = getelementptr inbounds [500 x i8], [500 x i8]* %2, i64 0, i64 0
  %14 = getelementptr inbounds [500 x i8], [500 x i8]* %3, i64 0, i64 0
  %15 = call i32 (i8*, ...) @__isoc99_scanf(i8* getelementptr inbounds ([6 x i8], [6 x i8]* @.str, i64 0, i64 0), i8* %13, i8* %14)
  %16 = getelementptr inbounds [500 x i8], [500 x i8]* %2, i64 0, i64 0
  %17 = call i64 @strlen(i8* %16) #4
  %18 = trunc i64 %17 to i32
  store i32 %18, i32* %4, align 4
  %19 = getelementptr inbounds [500 x i8], [500 x i8]* %3, i64 0, i64 0
  %20 = call i64 @strlen(i8* %19) #4
  %21 = trunc i64 %20 to i32
  store i32 %21, i32* %5, align 4
  store i32 0, i32* %6, align 4
  br label %22

22:                                               ; preds = %74, %0
  %23 = load i32, i32* %6, align 4
  %24 = load i32, i32* %5, align 4
  %25 = icmp slt i32 %23, %24
  br i1 %25, label %26, label %77

26:                                               ; preds = %22
  store i32 0, i32* %9, align 4
  %27 = load i32, i32* %6, align 4
  %28 = sext i32 %27 to i64
  %29 = getelementptr inbounds [500 x i8], [500 x i8]* %3, i64 0, i64 %28
  %30 = load i8, i8* %29, align 1
  %31 = sext i8 %30 to i32
  %32 = getelementptr inbounds [500 x i8], [500 x i8]* %2, i64 0, i64 0
  %33 = load i8, i8* %32, align 16
  %34 = sext i8 %33 to i32
  %35 = icmp eq i32 %31, %34
  br i1 %35, label %36, label %66

36:                                               ; preds = %26
  %37 = load i32, i32* %6, align 4
  store i32 %37, i32* %10, align 4
  %38 = load i32, i32* %6, align 4
  store i32 %38, i32* %7, align 4
  br label %39

39:                                               ; preds = %62, %36
  %40 = load i32, i32* %7, align 4
  %41 = load i32, i32* %6, align 4
  %42 = load i32, i32* %4, align 4
  %43 = add nsw i32 %41, %42
  %44 = icmp slt i32 %40, %43
  br i1 %44, label %45, label %65

45:                                               ; preds = %39
  %46 = load i32, i32* %7, align 4
  %47 = sext i32 %46 to i64
  %48 = getelementptr inbounds [500 x i8], [500 x i8]* %3, i64 0, i64 %47
  %49 = load i8, i8* %48, align 1
  %50 = sext i8 %49 to i32
  %51 = load i32, i32* %8, align 4
  %52 = add nsw i32 %51, 1
  store i32 %52, i32* %8, align 4
  %53 = sext i32 %51 to i64
  %54 = getelementptr inbounds [500 x i8], [500 x i8]* %2, i64 0, i64 %53
  %55 = load i8, i8* %54, align 1
  %56 = sext i8 %55 to i32
  %57 = icmp eq i32 %50, %56
  br i1 %57, label %58, label %61

58:                                               ; preds = %45
  %59 = load i32, i32* %9, align 4
  %60 = add nsw i32 %59, 1
  store i32 %60, i32* %9, align 4
  br label %61

61:                                               ; preds = %58, %45
  br label %62

62:                                               ; preds = %61
  %63 = load i32, i32* %7, align 4
  %64 = add nsw i32 %63, 1
  store i32 %64, i32* %7, align 4
  br label %39

65:                                               ; preds = %39
  br label %66

66:                                               ; preds = %65, %26
  %67 = load i32, i32* %9, align 4
  %68 = load i32, i32* %4, align 4
  %69 = icmp eq i32 %67, %68
  br i1 %69, label %70, label %73

70:                                               ; preds = %66
  %71 = load i32, i32* %10, align 4
  %72 = call i32 (i8*, ...) @printf(i8* getelementptr inbounds ([3 x i8], [3 x i8]* @.str.1, i64 0, i64 0), i32 %71)
  br label %77

73:                                               ; preds = %66
  br label %74

74:                                               ; preds = %73
  %75 = load i32, i32* %6, align 4
  %76 = add nsw i32 %75, 1
  store i32 %76, i32* %6, align 4
  br label %22

77:                                               ; preds = %70, %22
  %78 = call i32 (i8*, ...) @__isoc99_scanf(i8* getelementptr inbounds ([3 x i8], [3 x i8]* @.str.1, i64 0, i64 0), i32* %6)
  ret i32 0
}

; Function Attrs: argmemonly nounwind willreturn
declare void @llvm.memset.p0i8.i64(i8* nocapture writeonly, i8, i64, i1 immarg) #1

declare dso_local i32 @__isoc99_scanf(i8*, ...) #2

; Function Attrs: nounwind readonly
declare dso_local i64 @strlen(i8*) #3

declare dso_local i32 @printf(i8*, ...) #2


!llvm.module.flags = !{!0}
!llvm.ident = !{!1}

!0 = !{i32 1, !"wchar_size", i32 4}
!1 = !{!"clang version 10.0.0-4ubuntu1 "}
